target datalayout = "e-m:e-p270:32:32-p271:32:32-p272:64:64-i64:64-i128:128-f80:128-n8:16:32:64-S128"
target triple = "x86_64-unknown-linux-gnu"

%"struct.node::quic::TLSContext::Options" = type { %"class.node::MemoryRetainer", %"class.std::__cxx11::basic_string", %"class.std::__cxx11::basic_string", i8, i8, i8, i8, i8, %"class.std::__cxx11::basic_string", %"class.std::__cxx11::basic_string", %"class.std::__cxx11::basic_string", %"class.std::vector", %"class.std::vector.3", %"class.std::vector.3", %"class.std::vector.3" }
%"class.node::MemoryRetainer" = type { ptr }
%"class.std::__cxx11::basic_string" = type { %"struct.std::__cxx11::basic_string<char>::_Alloc_hider", i64, %union.anon }
%"struct.std::__cxx11::basic_string<char>::_Alloc_hider" = type { ptr }
%union.anon = type { i64, [8 x i8] }
%"class.std::vector" = type { %"struct.std::_Vector_base" }
%"struct.std::_Vector_base" = type { %"struct.std::_Vector_base<std::shared_ptr<node::crypto::KeyObjectData>, std::allocator<std::shared_ptr<node::crypto::KeyObjectData>>>::_Vector_impl" }
%"struct.std::_Vector_base<std::shared_ptr<node::crypto::KeyObjectData>, std::allocator<std::shared_ptr<node::crypto::KeyObjectData>>>::_Vector_impl" = type { %"struct.std::_Vector_base<std::shared_ptr<node::crypto::KeyObjectData>, std::allocator<std::shared_ptr<node::crypto::KeyObjectData>>>::_Vector_impl_data" }
%"struct.std::_Vector_base<std::shared_ptr<node::crypto::KeyObjectData>, std::allocator<std::shared_ptr<node::crypto::KeyObjectData>>>::_Vector_impl_data" = type { ptr, ptr, ptr }
%"class.std::vector.3" = type { %"struct.std::_Vector_base.4" }
%"struct.std::_Vector_base.4" = type { %"struct.std::_Vector_base<node::quic::Store, std::allocator<node::quic::Store>>::_Vector_impl" }
%"struct.std::_Vector_base<node::quic::Store, std::allocator<node::quic::Store>>::_Vector_impl" = type { %"struct.std::_Vector_base<node::quic::Store, std::allocator<node::quic::Store>>::_Vector_impl_data" }
%"struct.std::_Vector_base<node::quic::Store, std::allocator<node::quic::Store>>::_Vector_impl_data" = type { ptr, ptr, ptr }
%"class.node::quic::TLSContext" = type <{ %"class.node::MemoryRetainer", %struct.ngtcp2_crypto_conn_ref, i32, [4 x i8], ptr, ptr, %"struct.node::quic::TLSContext::Options", %"class.node::BaseObjectPtrImpl", %"class.std::unique_ptr", %"class.std::unique_ptr.11", i8, i8, [6 x i8] }>
%struct.ngtcp2_crypto_conn_ref = type { ptr, ptr }
%"class.node::BaseObjectPtrImpl" = type { %union.anon.8 }
%union.anon.8 = type { ptr }
%"class.std::unique_ptr" = type { %"struct.std::__uniq_ptr_data" }
%"struct.std::__uniq_ptr_data" = type { %"class.std::__uniq_ptr_impl" }
%"class.std::__uniq_ptr_impl" = type { %"class.std::tuple" }
%"class.std::tuple" = type { %"struct.std::_Tuple_impl" }
%"struct.std::_Tuple_impl" = type { %"struct.std::_Head_base.10" }
%"struct.std::_Head_base.10" = type { ptr }
%"class.std::unique_ptr.11" = type { %"struct.std::__uniq_ptr_data.12" }
%"struct.std::__uniq_ptr_data.12" = type { %"class.std::__uniq_ptr_impl.13" }
%"class.std::__uniq_ptr_impl.13" = type { %"class.std::tuple.14" }
%"class.std::tuple.14" = type { %"struct.std::_Tuple_impl.15" }
%"struct.std::_Tuple_impl.15" = type { %"struct.std::_Head_base.18" }
%"struct.std::_Head_base.18" = type { ptr }

; Function Attrs: mustprogress nounwind uwtable
define dso_local noundef i32 @_ZN4node4quic10TLSContext7ReceiveE19ngtcp2_crypto_levelmPKhm(ptr noundef nonnull align 8 dereferenceable(352) %this, i32 noundef %crypto_level, i64 noundef %offset, ptr noundef %data, i64 noundef %datalen) #5 align 2 {
entry:
  %retval = alloca i32, align 4
  %this.addr = alloca ptr, align 8
  %crypto_level.addr = alloca i32, align 4
  %offset.addr = alloca i64, align 8
  %data.addr = alloca ptr, align 8
  %datalen.addr = alloca i64, align 8
  %ret = alloca i32, align 4
  store ptr %this, ptr %this.addr, align 8
  store i32 %crypto_level, ptr %crypto_level.addr, align 4
  store i64 %offset, ptr %offset.addr, align 8
  store ptr %data, ptr %data.addr, align 8
  store i64 %datalen, ptr %datalen.addr, align 8
  %this1 = load ptr, ptr %this.addr, align 8
  %session_ = getelementptr inbounds %"class.node::quic::TLSContext", ptr %this1, i32 0, i32 5
  %0 = load ptr, ptr %session_, align 8
  %call = call noundef zeroext i1 @_ZNK4node4quic7Session12is_destroyedEv(ptr noundef nonnull align 8 dereferenceable(2616) %0)
  %lnot = xor i1 %call, true
  %lnot2 = xor i1 %lnot, true
  br i1 %lnot2, label %if.then, label %if.end

if.then:                                          ; preds = %entry
  store i32 -502, ptr %retval, align 4
  br label %return

if.end:                                           ; preds = %entry
  %session_3 = getelementptr inbounds %"class.node::quic::TLSContext", ptr %this1, i32 0, i32 5
  %1 = load ptr, ptr %session_3, align 8
  %call4 = call noundef ptr @_ZNK4node4quic7SessioncvP11ngtcp2_connEv(ptr noundef nonnull align 8 dereferenceable(2616) %1)
  %2 = load i32, ptr %crypto_level.addr, align 4
  %3 = load ptr, ptr %data.addr, align 8
  %4 = load i64, ptr %datalen.addr, align 8
  %call5 = call i32 @ngtcp2_crypto_read_write_crypto_data(ptr noundef %call4, i32 noundef %2, ptr noundef %3, i64 noundef %4)
  store i32 %call5, ptr %ret, align 4
  %5 = load i32, ptr %ret, align 4
  switch i32 %5, label %sw.epilog [
    i32 0, label %sw.bb
    i32 -10001, label %sw.bb
    i32 -10002, label %sw.bb6
  ]

sw.bb:                                            ; preds = %if.end, %if.end
  br label %sw.bb6

sw.bb6:                                           ; preds = %sw.bb, %if.end
  store i32 0, ptr %retval, align 4
  br label %return

sw.epilog:                                        ; preds = %if.end
  %6 = load i32, ptr %ret, align 4
  store i32 %6, ptr %retval, align 4
  br label %return

return:                                           ; preds = %sw.epilog, %sw.bb6, %if.then
  %7 = load i32, ptr %retval, align 4
  ret i32 %7
}