; Function Attrs: mustprogress nounwind uwtable
define dso_local noundef i32 @_ZN4node4quic10TLSContext7ReceiveE19ngtcp2_crypto_levelmPKhm(ptr nocapture noundef nonnull readonly align 8 dereferenceable(352) %this, i32 noundef %crypto_level, i64 noundef %offset, ptr noundef %data, i64 noundef %datalen) local_unnamed_addr #4 align 2 {
entry:
  %session_ = getelementptr inbounds i8, ptr %this, i64 40
  %0 = load ptr, ptr %session_, align 8
  %call = tail call noundef zeroext i1 @_ZNK4node4quic7Session12is_destroyedEv(ptr noundef nonnull align 8 dereferenceable(2616) %0) #18
  br i1 %call, label %return, label %if.end

if.end:                                           ; preds = %entry
  %1 = load ptr, ptr %session_, align 8
  %call4 = tail call noundef ptr @_ZNK4node4quic7SessioncvP11ngtcp2_connEv(ptr noundef nonnull align 8 dereferenceable(2616) %1) #18
  %call5 = tail call i32 @ngtcp2_crypto_read_write_crypto_data(ptr noundef %call4, i32 noundef %crypto_level, ptr noundef %data, i64 noundef %datalen) #18
  switch i32 %call5, label %sw.epilog [
    i32 0, label %return
    i32 -10001, label %return
    i32 -10002, label %return
  ]

sw.epilog:                                        ; preds = %if.end
  br label %return

return:                                           ; preds = %if.end, %if.end, %if.end, %entry, %sw.epilog
  %retval.0 = phi i32 [ %call5, %sw.epilog ], [ -502, %entry ], [ 0, %if.end ], [ 0, %if.end ], [ 0, %if.end ]
  ret i32 %retval.0
}